target datalayout = "e-m:e-p270:32:32-p271:32:32-p272:64:64-i64:64-i128:128-f80:128-n8:16:32:64-S128"
target triple = "x86_64-pc-linux-gnu"

%struct._X11SDOps = type { %struct._SurfaceDataOps, ptr, ptr, i8, i8, ptr, i64, ptr, ptr, i32, i32, ptr, ptr, i64, i32, i8, i32, i32, i64, %struct.ShmPixmapData }
%struct._SurfaceDataOps = type { ptr, ptr, ptr, ptr, ptr, ptr, ptr }
%struct.ShmPixmapData = type { ptr, i32, i8, i64, i8, i64, i64, i32, i32, i32, i32 }
%struct._AwtGraphicsConfigData = type { i32, i64, %struct.XVisualInfo, i32, ptr, ptr, ptr, i64, i32, i32, ptr, i32, ptr, ptr, i32, %struct.XRenderPictFormat }
%struct.XVisualInfo = type { ptr, i64, i32, i32, i32, i64, i64, i64, i32, i32 }
%struct.XRenderPictFormat = type { i64, i32, i32, %struct.XRenderDirectFormat, i64 }
%struct.XRenderDirectFormat = type { i16, i16, i16, i16, i16, i16, i16, i16 }
%struct.XShmSegmentInfo = type { i64, i32, ptr, i32 }
%struct._XImage = type { i32, i32, i32, i32, ptr, i32, i32, i32, i32, i32, i32, i32, i64, i64, i64, ptr, %struct.funcs }
%struct.funcs = type { ptr, ptr, ptr, ptr, ptr, ptr }

@mitShmPermissionMask = hidden global i32 384, align 4
@awt_display = external global ptr, align 8
@.str.13 = private unnamed_addr constant [47 x i8] c"X11SD_SetupSharedSegment shmget has failed: %s\00", align 1
@.str.14 = private unnamed_addr constant [46 x i8] c"X11SD_SetupSharedSegment shmat has failed: %s\00", align 1
@current_native_xerror_handler = external global ptr, align 8
@.str.15 = private unnamed_addr constant [51 x i8] c"X11SD_SetupSharedSegment XShmAttach has failed: %s\00", align 1

; Function Attrs: nounwind uwtable
define hidden ptr @X11SD_CreateSharedImage(ptr noundef %0, i32 noundef %1, i32 noundef %2) #0 {
  %4 = alloca ptr, align 8
  %5 = alloca ptr, align 8
  %6 = alloca i32, align 4
  %7 = alloca i32, align 4
  %8 = alloca ptr, align 8
  %9 = alloca ptr, align 8
  store ptr %0, ptr %5, align 8
  store i32 %1, ptr %6, align 4
  store i32 %2, ptr %7, align 4
  store ptr null, ptr %8, align 8
  %10 = call noalias ptr @malloc(i64 noundef 32) #10
  store ptr %10, ptr %9, align 8
  %11 = load ptr, ptr %9, align 8
  %12 = icmp eq ptr %11, null
  br i1 %12, label %13, label %14

13:                                               ; preds = %3
  store ptr null, ptr %4, align 8
  br label %138

14:                                               ; preds = %3
  %15 = load ptr, ptr %9, align 8
  call void @llvm.memset.p0.i64(ptr align 8 %15, i8 0, i64 32, i1 false)
  %16 = load ptr, ptr @awt_display, align 8
  %17 = load ptr, ptr %5, align 8
  %18 = getelementptr inbounds %struct._X11SDOps, ptr %17, i32 0, i32 11
  %19 = load ptr, ptr %18, align 8
  %20 = getelementptr inbounds %struct._AwtGraphicsConfigData, ptr %19, i32 0, i32 2
  %21 = getelementptr inbounds %struct.XVisualInfo, ptr %20, i32 0, i32 0
  %22 = load ptr, ptr %21, align 8
  %23 = load ptr, ptr %5, align 8
  %24 = getelementptr inbounds %struct._X11SDOps, ptr %23, i32 0, i32 9
  %25 = load i32, ptr %24, align 8
  %26 = load ptr, ptr %9, align 8
  %27 = load i32, ptr %6, align 4
  %28 = load i32, ptr %7, align 4
  %29 = call ptr @XShmCreateImage(ptr noundef %16, ptr noundef %22, i32 noundef %25, i32 noundef 2, ptr noundef null, ptr noundef %26, i32 noundef %27, i32 noundef %28)
  store ptr %29, ptr %8, align 8
  %30 = load ptr, ptr %8, align 8
  %31 = icmp eq ptr %30, null
  br i1 %31, label %32, label %34

32:                                               ; preds = %14
  %33 = load ptr, ptr %9, align 8
  call void @free(ptr noundef %33) #8
  store ptr null, ptr %4, align 8
  br label %138

34:                                               ; preds = %14
  %35 = load i32, ptr %7, align 4
  %36 = sext i32 %35 to i64
  %37 = load ptr, ptr %8, align 8
  %38 = getelementptr inbounds %struct._XImage, ptr %37, i32 0, i32 10
  %39 = load i32, ptr %38, align 4
  %40 = sext i32 %39 to i64
  %41 = mul i64 %36, %40
  %42 = load i32, ptr @mitShmPermissionMask, align 4
  %43 = or i32 512, %42
  %44 = call i32 @shmget(i32 noundef 0, i64 noundef %41, i32 noundef %43) #8
  %45 = load ptr, ptr %9, align 8
  %46 = getelementptr inbounds %struct.XShmSegmentInfo, ptr %45, i32 0, i32 1
  store i32 %44, ptr %46, align 8
  %47 = load ptr, ptr %9, align 8
  %48 = getelementptr inbounds %struct.XShmSegmentInfo, ptr %47, i32 0, i32 1
  %49 = load i32, ptr %48, align 8
  %50 = icmp slt i32 %49, 0
  br i1 %50, label %51, label %62

51:                                               ; preds = %34
  %52 = call ptr @__errno_location() #11
  %53 = load i32, ptr %52, align 4
  %54 = call ptr @strerror(i32 noundef %53) #8
  call void (i32, i8, ptr, ...) @J2dTraceImpl(i32 noundef 1, i8 noundef zeroext 1, ptr noundef @.str.13, ptr noundef %54)
  %55 = load ptr, ptr %9, align 8
  call void @free(ptr noundef %55) #8
  %56 = load ptr, ptr %8, align 8
  %57 = getelementptr inbounds %struct._XImage, ptr %56, i32 0, i32 16
  %58 = getelementptr inbounds %struct.funcs, ptr %57, i32 0, i32 1
  %59 = load ptr, ptr %58, align 8
  %60 = load ptr, ptr %8, align 8
  %61 = call i32 %59(ptr noundef %60)
  store ptr null, ptr %4, align 8
  br label %138

62:                                               ; preds = %34
  %63 = load ptr, ptr %9, align 8
  %64 = getelementptr inbounds %struct.XShmSegmentInfo, ptr %63, i32 0, i32 1
  %65 = load i32, ptr %64, align 8
  %66 = call ptr @shmat(i32 noundef %65, ptr noundef null, i32 noundef 0) #8
  %67 = load ptr, ptr %9, align 8
  %68 = getelementptr inbounds %struct.XShmSegmentInfo, ptr %67, i32 0, i32 2
  store ptr %66, ptr %68, align 8
  %69 = load ptr, ptr %9, align 8
  %70 = getelementptr inbounds %struct.XShmSegmentInfo, ptr %69, i32 0, i32 2
  %71 = load ptr, ptr %70, align 8
  %72 = icmp eq ptr %71, inttoptr (i64 -1 to ptr)
  br i1 %72, label %73, label %88

73:                                               ; preds = %62
  %74 = load ptr, ptr %9, align 8
  %75 = getelementptr inbounds %struct.XShmSegmentInfo, ptr %74, i32 0, i32 1
  %76 = load i32, ptr %75, align 8
  %77 = call i32 @shmctl(i32 noundef %76, i32 noundef 0, ptr noundef null) #8
  %78 = call ptr @__errno_location() #11
  %79 = load i32, ptr %78, align 4
  %80 = call ptr @strerror(i32 noundef %79) #8
  call void (i32, i8, ptr, ...) @J2dTraceImpl(i32 noundef 1, i8 noundef zeroext 1, ptr noundef @.str.14, ptr noundef %80)
  %81 = load ptr, ptr %9, align 8
  call void @free(ptr noundef %81) #8
  %82 = load ptr, ptr %8, align 8
  %83 = getelementptr inbounds %struct._XImage, ptr %82, i32 0, i32 16
  %84 = getelementptr inbounds %struct.funcs, ptr %83, i32 0, i32 1
  %85 = load ptr, ptr %84, align 8
  %86 = load ptr, ptr %8, align 8
  %87 = call i32 %85(ptr noundef %86)
  store ptr null, ptr %4, align 8
  br label %138

88:                                               ; preds = %62
  %89 = load ptr, ptr %9, align 8
  %90 = getelementptr inbounds %struct.XShmSegmentInfo, ptr %89, i32 0, i32 3
  store i32 0, ptr %90, align 8
  call void (...) @resetXShmAttachFailed()
  br label %91

91:                                               ; preds = %88
  br label %92

92:                                               ; preds = %91
  %93 = load ptr, ptr @awt_display, align 8
  %94 = call i32 @XSync(ptr noundef %93, i32 noundef 0)
  store ptr @XShmAttachXErrHandler, ptr @current_native_xerror_handler, align 8
  br label %95

95:                                               ; preds = %92
  br label %96

96:                                               ; preds = %95
  %97 = load ptr, ptr @awt_display, align 8
  %98 = load ptr, ptr %9, align 8
  %99 = call i32 @XShmAttach(ptr noundef %97, ptr noundef %98)
  br label %100

100:                                              ; preds = %96
  br label %101

101:                                              ; preds = %100
  %102 = load ptr, ptr @awt_display, align 8
  %103 = call i32 @XSync(ptr noundef %102, i32 noundef 0)
  store ptr null, ptr @current_native_xerror_handler, align 8
  br label %104

104:                                              ; preds = %101
  br label %105

105:                                              ; preds = %104
  %106 = load ptr, ptr %9, align 8
  %107 = getelementptr inbounds %struct.XShmSegmentInfo, ptr %106, i32 0, i32 1
  %108 = load i32, ptr %107, align 8
  %109 = call i32 @shmctl(i32 noundef %108, i32 noundef 0, ptr noundef null) #8
  %110 = call zeroext i8 (...) @isXShmAttachFailed()
  %111 = zext i8 %110 to i32
  %112 = icmp eq i32 %111, 1
  br i1 %112, label %113, label %128

113:                                              ; preds = %105
  %114 = call ptr @__errno_location() #11
  %115 = load i32, ptr %114, align 4
  %116 = call ptr @strerror(i32 noundef %115) #8
  call void (i32, i8, ptr, ...) @J2dTraceImpl(i32 noundef 1, i8 noundef zeroext 1, ptr noundef @.str.15, ptr noundef %116)
  %117 = load ptr, ptr %9, align 8
  %118 = getelementptr inbounds %struct.XShmSegmentInfo, ptr %117, i32 0, i32 2
  %119 = load ptr, ptr %118, align 8
  %120 = call i32 @shmdt(ptr noundef %119) #8
  %121 = load ptr, ptr %9, align 8
  call void @free(ptr noundef %121) #8
  %122 = load ptr, ptr %8, align 8
  %123 = getelementptr inbounds %struct._XImage, ptr %122, i32 0, i32 16
  %124 = getelementptr inbounds %struct.funcs, ptr %123, i32 0, i32 1
  %125 = load ptr, ptr %124, align 8
  %126 = load ptr, ptr %8, align 8
  %127 = call i32 %125(ptr noundef %126)
  store ptr null, ptr %4, align 8
  br label %138

128:                                              ; preds = %105
  %129 = load ptr, ptr %9, align 8
  %130 = getelementptr inbounds %struct.XShmSegmentInfo, ptr %129, i32 0, i32 2
  %131 = load ptr, ptr %130, align 8
  %132 = load ptr, ptr %8, align 8
  %133 = getelementptr inbounds %struct._XImage, ptr %132, i32 0, i32 4
  store ptr %131, ptr %133, align 8
  %134 = load ptr, ptr %9, align 8
  %135 = load ptr, ptr %8, align 8
  %136 = getelementptr inbounds %struct._XImage, ptr %135, i32 0, i32 15
  store ptr %134, ptr %136, align 8
  %137 = load ptr, ptr %8, align 8
  store ptr %137, ptr %4, align 8
  br label %138

138:                                              ; preds = %128, %113, %73, %51, %32, %13
  %139 = load ptr, ptr %4, align 8
  ret ptr %139
}