; Function Attrs: nounwind uwtable
define hidden ptr @X11SD_CreateSharedImage(ptr nocapture noundef readonly %0, i32 noundef %1, i32 noundef %2) local_unnamed_addr #0 {
  %calloc = tail call dereferenceable_or_null(32) ptr @calloc(i64 1, i64 32)
  %4 = icmp eq ptr %calloc, null
  br i1 %4, label %72, label %5

5:                                                ; preds = %3
  %6 = load ptr, ptr @awt_display, align 8
  %7 = getelementptr inbounds i8, ptr %0, i64 120
  %8 = load ptr, ptr %7, align 8
  %9 = getelementptr inbounds i8, ptr %8, i64 16
  %10 = load ptr, ptr %9, align 8
  %11 = getelementptr inbounds i8, ptr %0, i64 112
  %12 = load i32, ptr %11, align 8
  %13 = tail call ptr @XShmCreateImage(ptr noundef %6, ptr noundef %10, i32 noundef %12, i32 noundef 2, ptr noundef null, ptr noundef nonnull %calloc, i32 noundef %1, i32 noundef %2) #18
  %14 = icmp eq ptr %13, null
  br i1 %14, label %15, label %16

15:                                               ; preds = %5
  tail call void @free(ptr noundef nonnull %calloc) #18
  br label %72

16:                                               ; preds = %5
  %17 = sext i32 %2 to i64
  %18 = getelementptr inbounds i8, ptr %13, i64 44
  %19 = load i32, ptr %18, align 4
  %20 = sext i32 %19 to i64
  %21 = mul nsw i64 %20, %17
  %22 = load i32, ptr @mitShmPermissionMask, align 4
  %23 = or i32 %22, 512
  %24 = tail call i32 @shmget(i32 noundef 0, i64 noundef %21, i32 noundef %23) #18
  %25 = getelementptr inbounds i8, ptr %calloc, i64 8
  store i32 %24, ptr %25, align 8
  %26 = icmp slt i32 %24, 0
  br i1 %26, label %27, label %34

27:                                               ; preds = %16
  %28 = tail call ptr @__errno_location() #21
  %29 = load i32, ptr %28, align 4
  %30 = tail call ptr @strerror(i32 noundef %29) #18
  tail call void (i32, i8, ptr, ...) @J2dTraceImpl(i32 noundef 1, i8 noundef zeroext 1, ptr noundef nonnull @.str.13, ptr noundef %30) #18
  tail call void @free(ptr noundef nonnull %calloc) #18
  %31 = getelementptr inbounds i8, ptr %13, i64 96
  %32 = load ptr, ptr %31, align 8
  %33 = tail call i32 %32(ptr noundef nonnull %13) #18
  br label %72

34:                                               ; preds = %16
  %35 = tail call ptr @shmat(i32 noundef %24, ptr noundef null, i32 noundef 0) #18
  %36 = getelementptr inbounds i8, ptr %calloc, i64 16
  store ptr %35, ptr %36, align 8
  %37 = icmp eq ptr %35, inttoptr (i64 -1 to ptr)
  br i1 %37, label %38, label %47

38:                                               ; preds = %34
  %39 = load i32, ptr %25, align 8
  %40 = tail call i32 @shmctl(i32 noundef %39, i32 noundef 0, ptr noundef null) #18
  %41 = tail call ptr @__errno_location() #21
  %42 = load i32, ptr %41, align 4
  %43 = tail call ptr @strerror(i32 noundef %42) #18
  tail call void (i32, i8, ptr, ...) @J2dTraceImpl(i32 noundef 1, i8 noundef zeroext 1, ptr noundef nonnull @.str.14, ptr noundef %43) #18
  tail call void @free(ptr noundef nonnull %calloc) #18
  %44 = getelementptr inbounds i8, ptr %13, i64 96
  %45 = load ptr, ptr %44, align 8
  %46 = tail call i32 %45(ptr noundef nonnull %13) #18
  br label %72

47:                                               ; preds = %34
  %48 = getelementptr inbounds i8, ptr %calloc, i64 24
  store i32 0, ptr %48, align 8
  tail call void (...) @resetXShmAttachFailed() #18
  %49 = load ptr, ptr @awt_display, align 8
  %50 = tail call i32 @XSync(ptr noundef %49, i32 noundef 0) #18
  store ptr @XShmAttachXErrHandler, ptr @current_native_xerror_handler, align 8
  %51 = load ptr, ptr @awt_display, align 8
  %52 = tail call i32 @XShmAttach(ptr noundef %51, ptr noundef nonnull %calloc) #18
  %53 = load ptr, ptr @awt_display, align 8
  %54 = tail call i32 @XSync(ptr noundef %53, i32 noundef 0) #18
  store ptr null, ptr @current_native_xerror_handler, align 8
  %55 = load i32, ptr %25, align 8
  %56 = tail call i32 @shmctl(i32 noundef %55, i32 noundef 0, ptr noundef null) #18
  %57 = tail call zeroext i8 (...) @isXShmAttachFailed() #18
  %58 = icmp eq i8 %57, 1
  br i1 %58, label %59, label %68

59:                                               ; preds = %47
  %60 = tail call ptr @__errno_location() #21
  %61 = load i32, ptr %60, align 4
  %62 = tail call ptr @strerror(i32 noundef %61) #18
  tail call void (i32, i8, ptr, ...) @J2dTraceImpl(i32 noundef 1, i8 noundef zeroext 1, ptr noundef nonnull @.str.15, ptr noundef %62) #18
  %63 = load ptr, ptr %36, align 8
  %64 = tail call i32 @shmdt(ptr noundef %63) #18
  tail call void @free(ptr noundef nonnull %calloc) #18
  %65 = getelementptr inbounds i8, ptr %13, i64 96
  %66 = load ptr, ptr %65, align 8
  %67 = tail call i32 %66(ptr noundef nonnull %13) #18
  br label %72

68:                                               ; preds = %47
  %69 = load ptr, ptr %36, align 8
  %70 = getelementptr inbounds i8, ptr %13, i64 16
  store ptr %69, ptr %70, align 8
  %71 = getelementptr inbounds i8, ptr %13, i64 80
  store ptr %calloc, ptr %71, align 8
  br label %72

72:                                               ; preds = %3, %68, %59, %38, %27, %15
  %.0 = phi ptr [ null, %15 ], [ null, %27 ], [ null, %38 ], [ null, %59 ], [ %13, %68 ], [ null, %3 ]
  ret ptr %.0
}